; Function Attrs: nounwind uwtable
define zeroext i8 @l_Lean_getPPAnalyzeTypeAscriptions(ptr noundef %0) local_unnamed_addr #1 {
  %2 = load ptr, ptr @l_Lean_pp_analyze_typeAscriptions, align 8, !tbaa !11
  %3 = getelementptr inbounds nuw i8, ptr %2, i64 8
  %4 = load ptr, ptr %3, align 8, !tbaa !11
  %5 = ptrtoint ptr %4 to i64
  %6 = and i64 %5, 1
  %.not = icmp eq i64 %6, 0
  br i1 %.not, label %7, label %lean_inc.exit24

7:                                                ; preds = %1
  %.val.i = load i32, ptr %4, align 4, !tbaa !8
  %8 = icmp sgt i32 %.val.i, 0
  br i1 %8, label %9, label %11, !prof !13

9:                                                ; preds = %7
  %10 = add nuw i32 %.val.i, 1
  store i32 %10, ptr %4, align 4, !tbaa !8
  br label %lean_inc.exit24

11:                                               ; preds = %7
  %.not.i43 = icmp eq i32 %.val.i, 0
  br i1 %.not.i43, label %lean_inc.exit24, label %12

12:                                               ; preds = %11
  tail call void @lean_inc_ref_cold(ptr noundef nonnull %4) #7
  br label %lean_inc.exit24

lean_inc.exit24:                                  ; preds = %12, %11, %9, %1
  %13 = getelementptr inbounds nuw i8, ptr %2, i64 16
  %14 = load ptr, ptr %13, align 8, !tbaa !11
  %15 = ptrtoint ptr %14 to i64
  %16 = and i64 %15, 1
  %.not56 = icmp eq i64 %16, 0
  br i1 %.not56, label %17, label %lean_inc.exit23

17:                                               ; preds = %lean_inc.exit24
  %.val.i44 = load i32, ptr %14, align 4, !tbaa !8
  %18 = icmp sgt i32 %.val.i44, 0
  br i1 %18, label %19, label %21, !prof !13

19:                                               ; preds = %17
  %20 = add nuw i32 %.val.i44, 1
  store i32 %20, ptr %14, align 4, !tbaa !8
  br label %lean_inc.exit23

21:                                               ; preds = %17
  %.not.i45 = icmp eq i32 %.val.i44, 0
  br i1 %.not.i45, label %lean_inc.exit23, label %22

22:                                               ; preds = %21
  tail call void @lean_inc_ref_cold(ptr noundef nonnull %14) #7
  br label %lean_inc.exit23

lean_inc.exit23:                                  ; preds = %22, %21, %19, %lean_inc.exit24
  %23 = tail call ptr @l_Lean_KVMap_findCore(ptr noundef %0, ptr noundef %4) #7
  br i1 %.not, label %24, label %lean_dec.exit30

24:                                               ; preds = %lean_inc.exit23
  %25 = load i32, ptr %4, align 4, !tbaa !8
  %26 = icmp sgt i32 %25, 1
  br i1 %26, label %27, label %29, !prof !13

27:                                               ; preds = %24
  %28 = add nsw i32 %25, -1
  store i32 %28, ptr %4, align 4, !tbaa !8
  br label %lean_dec.exit30

29:                                               ; preds = %24
  %.not.i = icmp eq i32 %25, 0
  br i1 %.not.i, label %lean_dec.exit30, label %30

30:                                               ; preds = %29
  tail call void @lean_dec_ref_cold(ptr noundef nonnull %4) #7
  br label %lean_dec.exit30

lean_dec.exit30:                                  ; preds = %30, %29, %27, %lean_inc.exit23
  %31 = ptrtoint ptr %23 to i64
  %32 = and i64 %31, 1
  %.not.i47 = icmp eq i64 %32, 0
  br i1 %.not.i47, label %36, label %33

33:                                               ; preds = %lean_dec.exit30
  %34 = lshr i64 %31, 1
  %35 = trunc i64 %34 to i32
  br label %lean_obj_tag.exit

36:                                               ; preds = %lean_dec.exit30
  %37 = getelementptr i8, ptr %23, i64 4
  %.val.i48 = load i32, ptr %37, align 4
  %38 = lshr i32 %.val.i48, 24
  br label %lean_obj_tag.exit

lean_obj_tag.exit:                                ; preds = %33, %36
  %.0.i = phi i32 [ %35, %33 ], [ %38, %36 ]
  %39 = icmp eq i32 %.0.i, 0
  br i1 %39, label %40, label %50

40:                                               ; preds = %lean_obj_tag.exit
  %41 = lshr i64 %15, 1
  %42 = trunc i64 %41 to i8
  br i1 %.not56, label %43, label %lean_dec.exit29

43:                                               ; preds = %40
  %44 = load i32, ptr %14, align 4, !tbaa !8
  %45 = icmp sgt i32 %44, 1
  br i1 %45, label %46, label %48, !prof !13

46:                                               ; preds = %43
  %47 = add nsw i32 %44, -1
  store i32 %47, ptr %14, align 4, !tbaa !8
  br label %lean_dec.exit29

48:                                               ; preds = %43
  %.not.i31 = icmp eq i32 %44, 0
  br i1 %.not.i31, label %lean_dec.exit29, label %49

49:                                               ; preds = %48
  tail call void @lean_dec_ref_cold(ptr noundef nonnull %14) #7
  br label %lean_dec.exit29

50:                                               ; preds = %lean_obj_tag.exit
  %51 = getelementptr inbounds nuw i8, ptr %23, i64 8
  %52 = load ptr, ptr %51, align 8, !tbaa !11
  %53 = ptrtoint ptr %52 to i64
  %54 = and i64 %53, 1
  %.not57 = icmp eq i64 %54, 0
  br i1 %.not57, label %55, label %lean_inc.exit

55:                                               ; preds = %50
  %.val.i49 = load i32, ptr %52, align 4, !tbaa !8
  %56 = icmp sgt i32 %.val.i49, 0
  br i1 %56, label %57, label %59, !prof !13

57:                                               ; preds = %55
  %58 = add nuw i32 %.val.i49, 1
  store i32 %58, ptr %52, align 4, !tbaa !8
  br label %lean_inc.exit

59:                                               ; preds = %55
  %.not.i50 = icmp eq i32 %.val.i49, 0
  br i1 %.not.i50, label %lean_inc.exit, label %60

60:                                               ; preds = %59
  tail call void @lean_inc_ref_cold(ptr noundef nonnull %52) #7
  br label %lean_inc.exit

lean_inc.exit:                                    ; preds = %60, %59, %57, %50
  br i1 %.not.i47, label %61, label %lean_dec.exit28

61:                                               ; preds = %lean_inc.exit
  %62 = load i32, ptr %23, align 4, !tbaa !8
  %63 = icmp sgt i32 %62, 1
  br i1 %63, label %64, label %66, !prof !13

64:                                               ; preds = %61
  %65 = add nsw i32 %62, -1
  store i32 %65, ptr %23, align 4, !tbaa !8
  br label %lean_dec.exit28

66:                                               ; preds = %61
  %.not.i33 = icmp eq i32 %62, 0
  br i1 %.not.i33, label %lean_dec.exit28, label %67

67:                                               ; preds = %66
  tail call void @lean_dec_ref_cold(ptr noundef nonnull %23) #7
  br label %lean_dec.exit28

lean_dec.exit28:                                  ; preds = %67, %66, %64, %lean_inc.exit
  br i1 %.not57, label %lean_obj_tag.exit55, label %lean_obj_tag.exit55.thread

lean_obj_tag.exit55:                              ; preds = %lean_dec.exit28
  %68 = getelementptr i8, ptr %52, i64 4
  %.val.i54 = load i32, ptr %68, align 4
  %.mask = and i32 %.val.i54, -16777216
  %69 = icmp eq i32 %.mask, 16777216
  br i1 %69, label %72, label %89

lean_obj_tag.exit55.thread:                       ; preds = %lean_dec.exit28
  %70 = and i64 %53, 8589934590
  %71 = icmp eq i64 %70, 2
  br i1 %71, label %72, label %lean_dec.exit25

72:                                               ; preds = %lean_obj_tag.exit55.thread, %lean_obj_tag.exit55
  br i1 %.not56, label %73, label %lean_dec.exit27

73:                                               ; preds = %72
  %74 = load i32, ptr %14, align 4, !tbaa !8
  %75 = icmp sgt i32 %74, 1
  br i1 %75, label %76, label %78, !prof !13

76:                                               ; preds = %73
  %77 = add nsw i32 %74, -1
  store i32 %77, ptr %14, align 4, !tbaa !8
  br label %lean_dec.exit27

78:                                               ; preds = %73
  %.not.i35 = icmp eq i32 %74, 0
  br i1 %.not.i35, label %lean_dec.exit27, label %79

79:                                               ; preds = %78
  tail call void @lean_dec_ref_cold(ptr noundef nonnull %14) #7
  br label %lean_dec.exit27

lean_dec.exit27:                                  ; preds = %79, %78, %76, %72
  %80 = getelementptr inbounds nuw i8, ptr %52, i64 8
  %81 = load i8, ptr %80, align 1, !tbaa !14
  br i1 %.not57, label %82, label %lean_dec.exit29

82:                                               ; preds = %lean_dec.exit27
  %83 = load i32, ptr %52, align 4, !tbaa !8
  %84 = icmp sgt i32 %83, 1
  br i1 %84, label %85, label %87, !prof !13

85:                                               ; preds = %82
  %86 = add nsw i32 %83, -1
  store i32 %86, ptr %52, align 4, !tbaa !8
  br label %lean_dec.exit29

87:                                               ; preds = %82
  %.not.i37 = icmp eq i32 %83, 0
  br i1 %.not.i37, label %lean_dec.exit29, label %88

88:                                               ; preds = %87
  tail call void @lean_dec_ref_cold(ptr noundef nonnull %52) #7
  br label %lean_dec.exit29

89:                                               ; preds = %lean_obj_tag.exit55
  %90 = load i32, ptr %52, align 4, !tbaa !8
  %91 = icmp sgt i32 %90, 1
  br i1 %91, label %92, label %94, !prof !13

92:                                               ; preds = %89
  %93 = add nsw i32 %90, -1
  store i32 %93, ptr %52, align 4, !tbaa !8
  br label %lean_dec.exit25

94:                                               ; preds = %89
  %.not.i39 = icmp eq i32 %90, 0
  br i1 %.not.i39, label %lean_dec.exit25, label %95

95:                                               ; preds = %94
  tail call void @lean_dec_ref_cold(ptr noundef nonnull %52) #7
  br label %lean_dec.exit25

lean_dec.exit25:                                  ; preds = %lean_obj_tag.exit55.thread, %95, %94, %92
  %96 = lshr i64 %15, 1
  %97 = trunc i64 %96 to i8
  br i1 %.not56, label %98, label %lean_dec.exit29

98:                                               ; preds = %lean_dec.exit25
  %99 = load i32, ptr %14, align 4, !tbaa !8
  %100 = icmp sgt i32 %99, 1
  br i1 %100, label %101, label %103, !prof !13

101:                                              ; preds = %98
  %102 = add nsw i32 %99, -1
  store i32 %102, ptr %14, align 4, !tbaa !8
  br label %lean_dec.exit29

103:                                              ; preds = %98
  %.not.i41 = icmp eq i32 %99, 0
  br i1 %.not.i41, label %lean_dec.exit29, label %104

104:                                              ; preds = %103
  tail call void @lean_dec_ref_cold(ptr noundef nonnull %14) #7
  br label %lean_dec.exit29

lean_dec.exit29:                                  ; preds = %lean_dec.exit25, %101, %103, %104, %lean_dec.exit27, %85, %87, %88, %40, %46, %48, %49
  %.0 = phi i8 [ %42, %49 ], [ %42, %48 ], [ %42, %46 ], [ %42, %40 ], [ %81, %88 ], [ %81, %87 ], [ %81, %85 ], [ %81, %lean_dec.exit27 ], [ %97, %104 ], [ %97, %103 ], [ %97, %101 ], [ %97, %lean_dec.exit25 ]
  ret i8 %.0
}